; Function Attrs: nounwind uwtable
define hidden i32 @lsarpc_dissect_struct_lsa_PrivEntry(ptr noundef %0, i32 noundef %1, ptr noundef %2, ptr noundef %3, ptr noundef %4, ptr noundef %5, i32 noundef %6, i32 %7) local_unnamed_addr #0 {
  %9 = getelementptr inbounds nuw i8, ptr %4, i64 72
  %10 = load ptr, ptr %9, align 8
  %11 = getelementptr inbounds nuw i8, ptr %10, i64 96
  %12 = load i32, ptr %11, align 8
  %13 = and i32 %12, 1
  %.not = icmp eq i32 %13, 0
  %14 = getelementptr inbounds nuw i8, ptr %4, i64 28
  %15 = load i32, ptr %14, align 4
  %.not40 = icmp ne i32 %15, 0
  br i1 %.not, label %21, label %16

16:                                               ; preds = %8
  %17 = and i32 %1, 7
  %.not43 = icmp eq i32 %17, 0
  %or.cond = or i1 %.not43, %.not40
  br i1 %or.cond, label %26, label %18

18:                                               ; preds = %16
  %19 = and i32 %1, -8
  %20 = add i32 %19, 8
  br label %26

21:                                               ; preds = %8
  %22 = and i32 %1, 3
  %.not41 = icmp eq i32 %22, 0
  %or.cond48 = or i1 %.not41, %.not40
  br i1 %or.cond48, label %26, label %23

23:                                               ; preds = %21
  %24 = and i32 %1, -4
  %25 = add i32 %24, 4
  br label %26

26:                                               ; preds = %21, %23, %16, %18
  %.0 = phi i32 [ %1, %16 ], [ %20, %18 ], [ %1, %21 ], [ %25, %23 ]
  %.not44 = icmp eq ptr %3, null
  br i1 %.not44, label %31, label %27

27:                                               ; preds = %26
  %28 = tail call ptr @proto_tree_add_item(ptr noundef nonnull %3, i32 noundef %6, ptr noundef %0, i32 noundef %.0, i32 noundef -1, i32 noundef 0) #5
  %29 = load i32, ptr @ett_lsarpc_lsa_PrivEntry, align 4
  %30 = tail call ptr @proto_item_add_subtree(ptr noundef %28, i32 noundef %29) #5
  br label %31

31:                                               ; preds = %27, %26
  %.038 = phi ptr [ %28, %27 ], [ null, %26 ]
  %.037 = phi ptr [ %30, %27 ], [ null, %26 ]
  %32 = load i32, ptr @hf_lsarpc_lsa_PrivEntry_name, align 4
  %33 = tail call i32 @lsarpc_dissect_struct_lsa_StringLarge(ptr noundef %0, i32 noundef %.0, ptr noundef %2, ptr noundef %.037, ptr noundef nonnull %4, ptr noundef %5, i32 noundef %32, i32 poison)
  %34 = load i32, ptr @hf_lsarpc_lsa_PrivEntry_luid, align 4
  %35 = tail call i32 @lsarpc_dissect_struct_lsa_LUID(ptr noundef %0, i32 noundef %33, ptr noundef %2, ptr noundef %.037, ptr noundef nonnull %4, ptr noundef %5, i32 noundef %34, i32 poison)
  %36 = sub i32 %35, %.0
  tail call void @proto_item_set_len(ptr noundef %.038, i32 noundef %36) #5
  %37 = load ptr, ptr %9, align 8
  %38 = getelementptr inbounds nuw i8, ptr %37, i64 96
  %39 = load i32, ptr %38, align 8
  %40 = and i32 %39, 1
  %.not45 = icmp eq i32 %40, 0
  br i1 %.not45, label %48, label %41

41:                                               ; preds = %31
  %42 = getelementptr inbounds nuw i8, ptr %4, i64 28
  %43 = load i32, ptr %42, align 4
  %.not46 = icmp ne i32 %43, 0
  %44 = and i32 %35, 7
  %.not47 = icmp eq i32 %44, 0
  %or.cond49 = or i1 %.not47, %.not46
  br i1 %or.cond49, label %48, label %45

45:                                               ; preds = %41
  %46 = and i32 %35, -8
  %47 = add i32 %46, 8
  br label %48

48:                                               ; preds = %45, %41, %31
  %.1 = phi i32 [ %35, %41 ], [ %47, %45 ], [ %35, %31 ]
  ret i32 %.1
}